Certificate Request:
    Data:
        Version: 1 (0x0)
        Subject: CN = localhost
        Subject Public Key Info:
            Public Key Algorithm: rsaEncryption
                Public-Key: (4096 bit)
                Modulus:
                    00:b6:66:1d:d0:98:52:04:b4:4f:9b:49:cc:44:e0:
                    86:a2:5a:99:44:84:02:62:c8:b3:04:b2:dc:d8:9d:
                    b3:d0:c4:ba:0f:00:46:ba:82:f0:1a:28:7b:aa:11:
                    52:fd:c0:06:af:31:a2:0f:e9:2f:cf:c1:c0:3b:e1:
                    38:f7:57:6e:d6:bd:13:b8:a2:18:5f:bf:1b:b0:7a:
                    1a:a7:85:ff:65:2d:77:cd:20:6e:69:cf:b0:22:a4:
                    2f:71:00:ef:11:2d:35:4a:fe:04:a9:34:80:94:67:
                    91:fc:82:58:ba:7d:1f:73:2a:0f:0a:a1:1a:09:c5:
                    2e:5d:f4:ae:c8:39:a5:c8:d9:1e:f5:3b:68:8e:f1:
                    c6:16:73:c9:8c:1e:0f:3c:65:f7:cd:94:8f:c2:29:
                    f0:3c:c1:db:d3:6f:21:e2:e9:cd:fe:ce:87:10:1f:
                    67:7d:e0:b5:06:ba:ed:03:a8:7d:5f:dc:a9:ec:d5:
                    13:54:c4:6a:8d:5b:14:e1:57:a1:39:ac:ae:57:4f:
                    8d:86:c6:1f:9d:73:c0:23:78:94:52:c7:20:a8:8c:
                    4b:cd:d5:58:fb:3d:34:19:d6:39:c0:5e:42:22:41:
                    cd:4c:df:38:06:f6:59:bc:87:0f:00:3f:eb:8f:59:
                    19:64:22:bb:5d:a8:b9:38:ff:26:93:d7:4b:7b:24:
                    6b:b2:09:f9:80:a0:08:41:45:be:91:1d:55:6a:f4:
                    1c:77:d6:2c:5e:35:15:fd:58:dc:9e:c3:0c:15:58:
                    c5:44:87:5e:91:97:3f:cf:5b:f3:d0:9f:e3:33:4f:
                    68:98:cf:47:fc:13:07:eb:c8:a9:52:9a:b9:fb:43:
                    7c:d3:0b:2e:60:e4:cc:2a:39:cd:06:9a:8b:ab:1c:
                    4c:99:8a:37:f4:f2:87:fc:6a:a1:63:b4:fb:cb:8b:
                    63:04:93:33:5f:52:7f:35:df:f5:6c:44:0b:dc:92:
                    81:a3:ee:85:81:49:87:ea:dd:de:2f:e8:4b:f9:6b:
                    b8:23:21:e8:30:e4:d9:3d:41:93:a6:e0:a5:05:ed:
                    33:f2:83:d0:b4:94:24:89:6b:ea:1a:8a:08:c1:67:
                    22:b1:4b:be:ca:43:4b:ba:e9:1b:15:51:91:7d:9d:
                    39:00:90:5e:c8:3d:31:86:54:2f:21:4e:e2:30:a5:
                    dd:fb:06:c1:f1:29:fd:d5:5d:a6:9a:3c:6b:f5:1a:
                    74:32:5e:53:a8:9c:6a:f4:da:b7:12:80:31:0f:16:
                    87:68:0c:11:8a:80:07:60:02:c5:db:ca:1a:b4:eb:
                    8f:ee:97:b7:fa:9e:c8:79:88:92:72:65:19:37:2d:
                    16:b3:f8:b9:a6:02:27:7c:a4:51:39:7d:b2:23:d0:
                    cd:27:a5
                Exponent: 65537 (0x10001)
        Attributes:
            (none)
            Requested Extensions:
    Signature Algorithm: sha256WithRSAEncryption
    Signature Value:
        49:b6:01:4e:bc:d8:52:e6:0f:4f:ec:e0:de:19:49:91:6b:35:
        27:8b:a5:65:d1:89:fa:3c:ec:31:0d:3e:b3:9f:c0:da:ca:99:
        2a:0a:d6:95:28:f3:e6:67:23:4b:bc:17:00:43:a7:3a:be:8c:
        a8:6b:6f:fc:e9:9a:72:0a:38:fd:e4:4c:8a:44:3c:bf:96:a7:
        26:ea:59:e3:fe:1a:41:b9:26:08:2b:e0:14:20:e4:8e:5f:6a:
        27:74:c1:69:7e:b9:67:d3:e1:89:3d:5f:78:5e:bc:7b:51:2c:
        2f:f6:75:b3:39:d0:e3:9e:1f:82:d8:f6:25:23:da:5d:fe:b8:
        c4:fb:c4:98:e8:e7:15:ba:21:96:bc:b5:f0:f9:b4:0b:68:6f:
        75:30:e0:10:79:74:83:fe:c0:ef:a3:b2:ee:b5:3c:17:69:cc:
        6b:1b:57:38:90:ef:a9:65:ea:32:74:06:79:40:2c:6a:47:4a:
        56:9e:05:65:72:8e:35:f0:65:8e:55:75:ee:00:ba:4a:83:3b:
        5e:40:3d:5e:26:45:ff:53:9c:50:0d:93:fe:2b:8b:f2:48:bb:
        80:0a:3d:57:8f:8f:56:08:bc:94:67:1c:20:ae:c1:04:f6:9c:
        61:88:e0:d3:ea:df:1a:15:6d:cd:92:ad:2b:af:36:5d:d7:4c:
        92:13:51:db:95:ba:e0:20:a6:e9:2d:f7:0c:ac:c7:c5:c5:a1:
        7c:da:b8:90:7f:9e:1d:fc:4f:28:fc:ab:5f:d5:1b:99:de:e9:
        84:c0:25:bb:1c:ae:92:c3:db:03:9b:4b:9f:e8:4f:b1:66:6f:
        84:5f:98:24:ae:38:77:d6:f9:c9:8c:01:b6:2d:68:e0:b7:9b:
        62:5a:27:ab:98:95:d3:f9:b7:45:ce:ec:53:1c:19:03:ef:05:
        26:08:e9:a7:41:a3:f4:99:6d:c7:44:38:de:b1:1f:77:2a:bb:
        bd:a7:97:06:f0:55:3d:9e:67:6f:a0:2c:b0:68:4b:68:f4:10:
        8d:b6:f2:d7:37:0f:2c:d0:d2:86:cd:76:08:d4:ca:fc:e5:e5:
        26:e6:4e:95:13:46:01:dc:27:c6:e5:d4:2c:f6:94:91:f2:e4:
        ef:03:19:16:1d:46:88:a1:57:73:13:0d:92:e5:6a:8b:32:e4:
        71:81:ed:ca:fb:92:4a:f8:0b:94:b2:8f:94:bf:6f:b4:a7:37:
        19:2c:40:29:a6:58:03:38:68:50:37:55:31:26:af:ac:e8:de:
        e5:b7:ad:2b:19:05:22:54:a9:60:94:2a:6f:43:97:4b:f7:96:
        41:bd:7c:32:05:b0:95:e8:85:e1:4c:cd:48:7e:bf:97:05:2d:
        92:02:0d:c3:ea:f7:84:dc
-----BEGIN CERTIFICATE REQUEST-----
MIIEWTCCAkECAQAwFDESMBAGA1UEAwwJbG9jYWxob3N0MIICIjANBgkqhkiG9w0B
AQEFAAOCAg8AMIICCgKCAgEAtmYd0JhSBLRPm0nMROCGolqZRIQCYsizBLLc2J2z
0MS6DwBGuoLwGih7qhFS/cAGrzGiD+kvz8HAO+E491du1r0TuKIYX78bsHoap4X/
ZS13zSBuac+wIqQvcQDvES01Sv4EqTSAlGeR/IJYun0fcyoPCqEaCcUuXfSuyDml
yNke9TtojvHGFnPJjB4PPGX3zZSPwinwPMHb028h4unN/s6HEB9nfeC1BrrtA6h9
X9yp7NUTVMRqjVsU4VehOayuV0+NhsYfnXPAI3iUUscgqIxLzdVY+z00GdY5wF5C
IkHNTN84BvZZvIcPAD/rj1kZZCK7Xai5OP8mk9dLeyRrsgn5gKAIQUW+kR1VavQc
d9YsXjUV/VjcnsMMFVjFRIdekZc/z1vz0J/jM09omM9H/BMH68ipUpq5+0N80wsu
YOTMKjnNBpqLqxxMmYo39PKH/GqhY7T7y4tjBJMzX1J/Nd/1bEQL3JKBo+6FgUmH
6t3eL+hL+Wu4IyHoMOTZPUGTpuClBe0z8oPQtJQkiWvqGooIwWcisUu+ykNLuukb
FVGRfZ05AJBeyD0xhlQvIU7iMKXd+wbB8Sn91V2mmjxr9Rp0Ml5TqJxq9Nq3EoAx
DxaHaAwRioAHYALF28oatOuP7pe3+p7IeYiScmUZNy0Ws/i5pgInfKRROX2yI9DN
J6UCAwEAAaAAMA0GCSqGSIb3DQEBCwUAA4ICAQBJtgFOvNhS5g9P7ODeGUmRazUn
i6Vl0Yn6POwxDT6zn8DaypkqCtaVKPPmZyNLvBcAQ6c6voyoa2/86ZpyCjj95EyK
RDy/lqcm6lnj/hpBuSYIK+AUIOSOX2ondMFpfrln0+GJPV94Xrx7USwv9nWzOdDj
nh+C2PYlI9pd/rjE+8SY6OcVuiGWvLXw+bQLaG91MOAQeXSD/sDvo7LutTwXacxr
G1c4kO+pZeoydAZ5QCxqR0pWngVlco418GWOVXXuALpKgzteQD1eJkX/U5xQDZP+
K4vySLuACj1Xj49WCLyUZxwgrsEE9pxhiODT6t8aFW3Nkq0rrzZd10ySE1Hblbrg
IKbpLfcMrMfFxaF82riQf54d/E8o/Ktf1RuZ3umEwCW7HK6Sw9sDm0uf6E+xZm+E
X5gkrjh31vnJjAG2LWjgt5tiWiermJXT+bdFzuxTHBkD7wUmCOmnQaP0mW3HRDje
sR93Kru9p5cG8FU9nmdvoCywaEto9BCNtvLXNw8s0NKGzXYI1Mr85eUm5k6VE0YB
3CfG5dQs9pSR8uTvAxkWHUaIoVdzEw2S5WqLMuRxge3K+5JK+AuUso+Uv2+0pzcZ
LEApplgDOGhQN1UxJq+s6N7lt60rGQUiVKlglCpvQ5dL95ZBvXwyBbCV6IXhTM1I
fr+XBS2SAg3D6veE3A==
-----END CERTIFICATE REQUEST-----
