Certificate:
    Data:
        Version: 1 (0x0)
        Serial Number:
            2a:87:99:c8:16:b6:1e:d9:e8:dd:71:e9:9c:60:49:8d:77:33:97:88
        Signature Algorithm: sha256WithRSAEncryption
        Issuer: CN = postgres
        Validity
            Not Before: Mar  5 22:38:31 2024 GMT
            Not After : Mar  5 22:38:31 2025 GMT
        Subject: CN = localhost
        Subject Public Key Info:
            Public Key Algorithm: rsaEncryption
                Public-Key: (4096 bit)
                Modulus:
                    00:b6:66:1d:d0:98:52:04:b4:4f:9b:49:cc:44:e0:
                    86:a2:5a:99:44:84:02:62:c8:b3:04:b2:dc:d8:9d:
                    b3:d0:c4:ba:0f:00:46:ba:82:f0:1a:28:7b:aa:11:
                    52:fd:c0:06:af:31:a2:0f:e9:2f:cf:c1:c0:3b:e1:
                    38:f7:57:6e:d6:bd:13:b8:a2:18:5f:bf:1b:b0:7a:
                    1a:a7:85:ff:65:2d:77:cd:20:6e:69:cf:b0:22:a4:
                    2f:71:00:ef:11:2d:35:4a:fe:04:a9:34:80:94:67:
                    91:fc:82:58:ba:7d:1f:73:2a:0f:0a:a1:1a:09:c5:
                    2e:5d:f4:ae:c8:39:a5:c8:d9:1e:f5:3b:68:8e:f1:
                    c6:16:73:c9:8c:1e:0f:3c:65:f7:cd:94:8f:c2:29:
                    f0:3c:c1:db:d3:6f:21:e2:e9:cd:fe:ce:87:10:1f:
                    67:7d:e0:b5:06:ba:ed:03:a8:7d:5f:dc:a9:ec:d5:
                    13:54:c4:6a:8d:5b:14:e1:57:a1:39:ac:ae:57:4f:
                    8d:86:c6:1f:9d:73:c0:23:78:94:52:c7:20:a8:8c:
                    4b:cd:d5:58:fb:3d:34:19:d6:39:c0:5e:42:22:41:
                    cd:4c:df:38:06:f6:59:bc:87:0f:00:3f:eb:8f:59:
                    19:64:22:bb:5d:a8:b9:38:ff:26:93:d7:4b:7b:24:
                    6b:b2:09:f9:80:a0:08:41:45:be:91:1d:55:6a:f4:
                    1c:77:d6:2c:5e:35:15:fd:58:dc:9e:c3:0c:15:58:
                    c5:44:87:5e:91:97:3f:cf:5b:f3:d0:9f:e3:33:4f:
                    68:98:cf:47:fc:13:07:eb:c8:a9:52:9a:b9:fb:43:
                    7c:d3:0b:2e:60:e4:cc:2a:39:cd:06:9a:8b:ab:1c:
                    4c:99:8a:37:f4:f2:87:fc:6a:a1:63:b4:fb:cb:8b:
                    63:04:93:33:5f:52:7f:35:df:f5:6c:44:0b:dc:92:
                    81:a3:ee:85:81:49:87:ea:dd:de:2f:e8:4b:f9:6b:
                    b8:23:21:e8:30:e4:d9:3d:41:93:a6:e0:a5:05:ed:
                    33:f2:83:d0:b4:94:24:89:6b:ea:1a:8a:08:c1:67:
                    22:b1:4b:be:ca:43:4b:ba:e9:1b:15:51:91:7d:9d:
                    39:00:90:5e:c8:3d:31:86:54:2f:21:4e:e2:30:a5:
                    dd:fb:06:c1:f1:29:fd:d5:5d:a6:9a:3c:6b:f5:1a:
                    74:32:5e:53:a8:9c:6a:f4:da:b7:12:80:31:0f:16:
                    87:68:0c:11:8a:80:07:60:02:c5:db:ca:1a:b4:eb:
                    8f:ee:97:b7:fa:9e:c8:79:88:92:72:65:19:37:2d:
                    16:b3:f8:b9:a6:02:27:7c:a4:51:39:7d:b2:23:d0:
                    cd:27:a5
                Exponent: 65537 (0x10001)
    Signature Algorithm: sha256WithRSAEncryption
    Signature Value:
        54:e4:7d:76:74:42:82:f1:f9:9b:a9:b6:68:8e:e3:d2:26:eb:
        6e:51:b9:c5:2d:f7:bb:0e:cb:59:83:3a:3a:f4:e4:36:87:3a:
        f3:39:e7:67:bc:b1:28:a6:89:b1:e3:32:af:db:eb:ea:bd:47:
        b8:25:7b:0c:51:99:25:3b:87:1c:9b:a5:fe:00:31:54:7e:28:
        a4:e4:96:66:a3:39:0d:6c:3c:d7:25:be:2c:de:fa:2a:20:ac:
        0b:fa:9e:48:66:50:d6:50:7b:5f:86:cf:3d:29:ef:28:a4:35:
        5c:3e:4a:ec:57:6e:b2:d1:8c:45:92:65:7b:1b:6d:67:e2:e1:
        c6:6e:e5:54:8d:d6:2d:8c:34:c7:cd:60:94:01:08:3a:62:52:
        ad:be:fc:07:17:d3:4b:67:70:eb:b6:3c:a6:fb:86:2d:a0:67:
        6d:20:e0:e6:57:d7:31:b1:25:f9:38:73:f6:bd:d6:02:9f:0a:
        28:87:94:e8:25:f9:b1:f1:66:c5:53:fc:65:68:a2:eb:cc:b8:
        ce:56:2e:2e:5a:af:71:ac:76:9b:ed:f6:b8:34:5f:0b:7c:4a:
        1c:b1:36:6f:18:9f:91:37:22:10:f7:16:8a:20:6d:ee:3c:aa:
        09:91:46:7b:81:c4:1b:bc:e3:f3:9d:f7:2e:86:9e:14:16:f6:
        60:02:57:26:3f:61:af:c9:3b:f2:d4:b4:68:68:30:88:e6:5a:
        b1:64:8b:1d:11:8d:47:2e:ba:4f:75:9b:97:17:ac:7c:4c:5d:
        2e:a3:42:74:2e:d5:c0:cd:7d:80:50:97:c3:22:a5:b0:f8:c1:
        d1:a4:cf:55:65:06:68:1c:34:3a:50:88:16:a5:d4:af:90:35:
        63:53:fc:90:ae:96:64:17:82:56:82:b7:c8:1e:e7:65:7f:a9:
        e8:93:04:b0:f1:56:ca:65:73:d1:0c:15:51:9d:97:ce:a2:40:
        6f:40:a7:16:38:2b:9a:d5:a4:38:f2:8c:80:3c:59:ba:2f:aa:
        b8:e9:c7:1d:1b:d4:19:52:87:be:3a:0c:27:3c:e2:72:bd:c4:
        51:10:07:c4:23:de:73:82:4d:57:ea:44:fe:ff:e1:ae:cb:9e:
        b6:6f:0d:cc:4e:07:00:bd:f9:42:86:7f:9a:67:b1:29:df:53:
        08:1d:dd:de:da:72:c3:71:20:94:2b:b8:ae:a7:2e:84:db:e4:
        09:92:c6:b5:42:12:70:a3:bd:1d:49:aa:fd:0c:6d:b5:c9:fc:
        b8:bf:37:80:58:51:ed:8f:f7:23:ca:87:20:3e:a6:2e:53:73:
        fb:89:72:9e:32:36:c9:c7:ee:f2:61:c5:c6:b0:a4:15:01:a4:
        84:76:56:47:91:47:c5:e1
-----BEGIN CERTIFICATE-----
MIIErjCCApYCFCqHmcgWth7Z6N1x6ZxgSY13M5eIMA0GCSqGSIb3DQEBCwUAMBMx
ETAPBgNVBAMMCHBvc3RncmVzMB4XDTI0MDMwNTIyMzgzMVoXDTI1MDMwNTIyMzgz
MVowFDESMBAGA1UEAwwJbG9jYWxob3N0MIICIjANBgkqhkiG9w0BAQEFAAOCAg8A
MIICCgKCAgEAtmYd0JhSBLRPm0nMROCGolqZRIQCYsizBLLc2J2z0MS6DwBGuoLw
Gih7qhFS/cAGrzGiD+kvz8HAO+E491du1r0TuKIYX78bsHoap4X/ZS13zSBuac+w
IqQvcQDvES01Sv4EqTSAlGeR/IJYun0fcyoPCqEaCcUuXfSuyDmlyNke9TtojvHG
FnPJjB4PPGX3zZSPwinwPMHb028h4unN/s6HEB9nfeC1BrrtA6h9X9yp7NUTVMRq
jVsU4VehOayuV0+NhsYfnXPAI3iUUscgqIxLzdVY+z00GdY5wF5CIkHNTN84BvZZ
vIcPAD/rj1kZZCK7Xai5OP8mk9dLeyRrsgn5gKAIQUW+kR1VavQcd9YsXjUV/Vjc
nsMMFVjFRIdekZc/z1vz0J/jM09omM9H/BMH68ipUpq5+0N80wsuYOTMKjnNBpqL
qxxMmYo39PKH/GqhY7T7y4tjBJMzX1J/Nd/1bEQL3JKBo+6FgUmH6t3eL+hL+Wu4
IyHoMOTZPUGTpuClBe0z8oPQtJQkiWvqGooIwWcisUu+ykNLuukbFVGRfZ05AJBe
yD0xhlQvIU7iMKXd+wbB8Sn91V2mmjxr9Rp0Ml5TqJxq9Nq3EoAxDxaHaAwRioAH
YALF28oatOuP7pe3+p7IeYiScmUZNy0Ws/i5pgInfKRROX2yI9DNJ6UCAwEAATAN
BgkqhkiG9w0BAQsFAAOCAgEAVOR9dnRCgvH5m6m2aI7j0ibrblG5xS33uw7LWYM6
OvTkNoc68znnZ7yxKKaJseMyr9vr6r1HuCV7DFGZJTuHHJul/gAxVH4opOSWZqM5
DWw81yW+LN76KiCsC/qeSGZQ1lB7X4bPPSnvKKQ1XD5K7FdustGMRZJlexttZ+Lh
xm7lVI3WLYw0x81glAEIOmJSrb78BxfTS2dw67Y8pvuGLaBnbSDg5lfXMbEl+Thz
9r3WAp8KKIeU6CX5sfFmxVP8ZWii68y4zlYuLlqvcax2m+32uDRfC3xKHLE2bxif
kTciEPcWiiBt7jyqCZFGe4HEG7zj8533LoaeFBb2YAJXJj9hr8k78tS0aGgwiOZa
sWSLHRGNRy66T3WblxesfExdLqNCdC7VwM19gFCXwyKlsPjB0aTPVWUGaBw0OlCI
FqXUr5A1Y1P8kK6WZBeCVoK3yB7nZX+p6JMEsPFWymVz0QwVUZ2XzqJAb0CnFjgr
mtWkOPKMgDxZui+quOnHHRvUGVKHvjoMJzzicr3EURAHxCPec4JNV+pE/v/hrsue
tm8NzE4HAL35QoZ/mmexKd9TCB3d3tpyw3EglCu4rqcuhNvkCZLGtUIScKO9HUmq
/Qxttcn8uL83gFhR7Y/3I8qHID6mLlNz+4lynjI2ycfu8mHFxrCkFQGkhHZWR5FH
xeE=
-----END CERTIFICATE-----
